
main      檔案格式 elf32-littleriscv
main
系統架構：riscv:rv32，旗標 0x00000112：
EXEC_P, HAS_SYMS, D_PAGED
開始位址 0x00000000

Program Header:
0x70000003 off    0x00003023 vaddr 0x00000000 paddr 0x00000000 align 2**0
         filesz 0x00000058 memsz 0x00000000 flags r--
    LOAD off    0x00001000 vaddr 0x00000000 paddr 0x00000000 align 2**12
         filesz 0x00000260 memsz 0x00000260 flags r-x
    LOAD off    0x00002000 vaddr 0x00010000 paddr 0x20000000 align 2**12
         filesz 0x00000ebc memsz 0x00000ebc flags r-x
    LOAD off    0x00000000 vaddr 0x20100000 paddr 0x20100000 align 2**12
         filesz 0x00000000 memsz 0x00001000 flags rw-
    LOAD off    0x00003000 vaddr 0x00020000 paddr 0x20101000 align 2**12
         filesz 0x00000008 memsz 0x00001008 flags rw-
   STACK off    0x00000000 vaddr 0x00000000 paddr 0x00000000 align 2**4
         filesz 0x00000000 memsz 0x00000000 flags rw-

區段：
Idx Name          Size      VMA       LMA       File off  Algn
  0 .text0        00000260  00000000  00000000  00001000  2**2
                  CONTENTS, ALLOC, LOAD, READONLY, CODE
  1 .text1        00000eb8  00010000  20000000  00002000  2**2
                  CONTENTS, ALLOC, LOAD, READONLY, CODE
  2 .rodata       00000004  00010eb8  20000eb8  00002eb8  2**0
                  CONTENTS, ALLOC, LOAD, READONLY, DATA
  3 _test         00001000  20100000  20100000  00003000  2**0
                  ALLOC
  4 .sdata        00000008  00020000  20101000  00003000  2**2
                  CONTENTS, ALLOC, LOAD, DATA
  5 .data         00000000  00020008  20101008  00003008  2**0
                  CONTENTS, ALLOC, LOAD, DATA
  6 .bss          00000000  00020008  20101008  00003008  2**0
                  ALLOC
  7 .stack        00001000  00020008  20101008  00003008  2**0
                  ALLOC
  8 .comment      0000001b  00000000  00000000  00003008  2**0
                  CONTENTS, READONLY
  9 .riscv.attributes 00000058  00000000  00000000  00003023  2**0
                  CONTENTS, READONLY
SYMBOL TABLE:
00000000 l    d  .text0	00000000 .text0
00010000 l    d  .text1	00000000 .text1
00010eb8 l    d  .rodata	00000000 .rodata
20100000 l    d  _test	00000000 _test
00020000 l    d  .sdata	00000000 .sdata
00020008 l    d  .data	00000000 .data
00020008 l    d  .bss	00000000 .bss
00020008 l    d  .stack	00000000 .stack
00000000 l    d  .comment	00000000 .comment
00000000 l    d  .riscv.attributes	00000000 .riscv.attributes
00000000 l    df *ABS*	00000000 setup.o
00000084 l       .text0	00000000 init_bss
00000108 l       .text0	00000000 fill_block
0000009c l       .text0	00000000 init_sbss
000000b4 l       .text0	00000000 write_stack_pattern
000000cc l       .text0	00000000 init_stack
000000d4 l       .text0	00000000 write_test_pattern
000000ec l       .text0	00000000 SystemInit
000000f4 l       .text0	00000000 SystemExit
00000104 l       .text0	00000000 dead_loop
00000118 l       .text0	00000000 fb_end
00000000 l    df *ABS*	00000000 boot.c
00000000 l    df *ABS*	00000000 isr.o
00000000 l    df *ABS*	00000000 main1.c
00000000 l    df *ABS*	00000000 main.o
000101e0 l       .text1	00000000 add
0001021c l       .text1	00000000 sub
00010258 l       .text1	00000000 sll
00010294 l       .text1	00000000 slt
000102d0 l       .text1	00000000 sltu
00010310 l       .text1	00000000 xor
00010354 l       .text1	00000000 srl
00010398 l       .text1	00000000 sra
000103dc l       .text1	00000000 or
00010424 l       .text1	00000000 and
00010468 l       .text1	00000000 load
00010eb8 l       .rodata	00000000 lw_data
0001050c l       .text1	00000000 addi
00010558 l       .text1	00000000 slti
000105a4 l       .text1	00000000 sltiu
000105f4 l       .text1	00000000 xori
00010640 l       .text1	00000000 ori
0001068c l       .text1	00000000 andi
000106e0 l       .text1	00000000 slli
00010730 l       .text1	00000000 srli
00010784 l       .text1	00000000 srai
000107d8 l       .text1	00000000 jalr
0001085c l       .text1	00000000 store
000108c4 l       .text1	00000000 beq
00010924 l       .text1	00000000 bne
00010984 l       .text1	00000000 blt
00010a0c l       .text1	00000000 bge
00010a88 l       .text1	00000000 bltu
00010b04 l       .text1	00000000 bgeu
00010b80 l       .text1	00000000 auipc
00010b9c l       .text1	00000000 lui
00010bb8 l       .text1	00000000 jal
00010bdc l       .text1	00000000 csrrw
00010c7c l       .text1	00000000 csrrwi
00010cbc l       .text1	00000000 csrrs
00010ce0 l       .text1	00000000 csrrsi
00010cfc l       .text1	00000000 csrrc
00010d20 l       .text1	00000000 csrrci
00010d3c l       .text1	00000000 mul
00010d68 l       .text1	00000000 mulh
00010d94 l       .text1	00000000 mulhu
00010dc0 l       .text1	00000000 mulhsu
00010dec l       .text1	00000000 andn
00010e08 l       .text1	00000000 orn
00010e24 l       .text1	00000000 xnor
00010e40 l       .text1	00000000 rol
00010e58 l       .text1	00000000 ror
00010e70 l       .text1	00000000 bclr
00010e84 l       .text1	00000000 bset
00010e98 l       .text1	00000000 binv
00010eac l       .text1	00000000 main_exit
00020004 g     O .sdata	00000004 dma_addr_boot
20100000 g       _test	00000000 _test_start
20101008 g       *ABS*	00000000 __data_paddr_start
00020000 g       _test	00000000 __sbss_start
00020800 g       .sdata	00000000 _gp
20101000 g       _test	00000000 _test_end
00010000 g       .text1	00000000 _imem_start
00001000 g       *ABS*	00000000 _TEST_SIZE
20101000 g       *ABS*	00000000 __sdata_paddr_start
00020000 g       .sdata	00000000 __sdata_start
00010ebc g       .rodata	00000000 __rodata_end
000001a0 g     F .text0	000000c0 boot
00020008 g       .bss	00000000 __bss_end
00010180 g     F .text1	00000050 trap_handler
00020000 g       _test	00000000 __sbss_end
00000000 g       .text0	00000000 _start
00010eb8 g       .rodata	00000000 __rodata_start
00010108 g     F .text1	0000003c timer_interrupt_handler
00010144 g     F .text1	0000003c external_interrupt_handler
00020008 g       .data	00000000 __data_end
20000000 g       .rodata	00000000 _dram_i_start
00020008 g       .bss	00000000 __bss_start
00001000 g       *ABS*	00000000 _STACK_SIZE
0002fffc g       .stack	00000000 _sim_end
000101d0 g       .text1	00000000 main
00010000 g       .text1	00000000 trap_entry
00020008 g       .stack	00000000 _stack_end
00020008 g       .sdata	00000000 __sdata_end
20000ebc g       .rodata	00000000 _dram_i_end
0000011c g     F .text0	00000084 configure_and_start_dma
00021008 g       .stack	00000000 __stack
00030000 g       .stack	00000000 _end
00021008 g       .stack	00000000 _stack
00020000 g     O .sdata	00000004 WDT_addr
00020008 g       .data	00000000 __data_start


.text0 區段的內容：
 0000 93000000 13010000 93010000 13020000  ................
 0010 93020000 13030000 93030000 13040000  ................
 0020 93040000 13050000 93050000 13060000  ................
 0030 93060000 13070000 93070000 13080000  ................
 0040 93080000 13090000 93090000 130a0000  ................
 0050 930a0000 130b0000 930b0000 130c0000  ................
 0060 930c0000 130d0000 930d0000 130e0000  ................
 0070 930e0000 130f0000 930f0000 97010200  ................
 0080 93814178 17050200 130545f8 97050200  ..Ax......E.....
 0090 938585f7 13060000 ef000007 17050200  ................
 00a0 130545f6 97050200 938585f5 13060000  ..E.............
 00b0 ef008005 17050200 130545f5 97150200  ..........E.....
 00c0 938585f4 13060000 ef000004 17110200  ................
 00d0 1301c1f3 17051020 1305c5f2 97151020  ....... ....... 
 00e0 938505f2 13060000 ef000002 ef00400b  ..............@.
 00f0 ef00010e 97020300 938282f0 1303f0ff  ................
 0100 23a06200 6f000000 63e8a500 2320c500  #.b.o...c...# ..
 0110 13054500 6ff05fff 67800000 130101fe  ..E.o._.g.......
 0120 232e1100 232c8100 13040102 2326a4fe  #...#,......#&..
 0130 2324b4fe 2322c4fe 93078000 73a00730  #$..#"......s..0
 0140 9317b028 73a04730 b7070210 93870720  ...(s.G0....... 
 0150 0327c4fe 23a0e700 b7070210 93870730  .'..#..........0
 0160 032784fe 23a0e700 b7070210 93870740  .'..#..........@
 0170 032744fe 23a0e700 b7070210 93870710  .'D.#...........
 0180 13071000 23a0e700 73005010 13000000  ....#...s.P.....
 0190 8320c101 03248101 13010102 67800000  . ...$......g...
 01a0 130101ff 23261100 23248100 13040101  ....#&..#$......
 01b0 b7070020 93860700 b7070100 93850700  ... ............
 01c0 b7170020 1387c7eb b7070020 93870700  ... ....... ....
 01d0 b307f740 93d72740 13860700 13850600  ...@..'@........
 01e0 eff0dff3 b7171020 93868700 b7070200  ....... ........
 01f0 93858700 b7070200 13878700 b7070200  ................
 0200 93878700 b307f740 93d72740 13860700  .......@..'@....
 0210 13850600 eff09ff0 b7171020 93860700  ........... ....
 0220 b7070200 93850700 b7070200 13878700  ................
 0230 b7070200 93870700 b307f740 93d72740  ...........@..'@
 0240 13860700 13850600 eff05fed 13000000  .........._.....
 0250 8320c100 03248100 13010101 67800000  . ...$......g...
.text1 區段的內容：
 10000 130141f8 23201100 23222100 23243100  ..A.# ..#"!.#$1.
 10010 23264100 23285100 232a6100 232c7100  #&A.#(Q.#*a.#,q.
 10020 232e8100 23209102 2322a102 2324b102  #...# ..#"..#$..
 10030 2326c102 2328d102 232ae102 232cf102  #&..#(..#*..#,..
 10040 232e0103 23201105 23222105 23243105  #...# ..#"!.#$1.
 10050 23264105 23285105 232a6105 232c7105  #&A.#(Q.#*a.#,q.
 10060 232e8105 23209107 2322a107 2324b107  #...# ..#"..#$..
 10070 2326c107 2328d107 232ae107 232cf107  #&..#(..#*..#,..
 10080 ef000010 83200100 03214100 83218100  ..... ...!A..!..
 10090 0322c100 83220101 03234101 83238101  ."..."...#A..#..
 100a0 0324c101 83240102 03254102 83258102  .$...$...%A..%..
 100b0 0326c102 83260103 03274103 83278103  .&...&...'A..'..
 100c0 0328c103 83280104 03294104 83298104  .(...(...)A..)..
 100d0 032ac104 832a0105 032b4105 832b8105  .*...*...+A..+..
 100e0 032cc105 832c0106 032d4106 832d8106  .,...,...-A..-..
 100f0 032ec106 832e0107 032f4107 832f8107  ........./A../..
 10100 1301c107 73002030 130101ff 23261100  ....s. 0....#&..
 10110 23248100 13040101 73600030 b7070200  #$......s`.0....
 10120 83a70700 93870710 23a00700 6ff05eed  ........#...o.^.
 10130 13000000 8320c100 03248100 13010101  ..... ...$......
 10140 67800000 130101fe 232e1100 232c8100  g.......#...#,..
 10150 13040102 b7070210 2326f4fe 73600030  ........#&..s`.0
 10160 8327c4fe 93870710 23a00700 13000000  .'......#.......
 10170 8320c101 03248101 13010102 67800000  . ...$......g...
 10180 130101fe 232e1100 232c8100 13040102  ....#...#,......
 10190 f3274034 2326f4fe 8327c4fe 93f70708  .'@4#&...'......
 101a0 63840700 eff05ff6 0327c4fe 9317b028  c....._..'.....(
 101b0 b377f700 63840700 eff0dff8 13000000  .w..c...........
 101c0 8320c101 03248101 13010102 67800000  . ...$......g...
 101d0 1301c1ff 23208100 17040f20 130484e2  ....# ..... ....
 101e0 9302f0ff 1303f0ff b3826200 b3826200  ..........b...b.
 101f0 b3826200 b3826200 b3826200 1303e0ff  ..b...b...b.....
 10200 b3025300 b3025300 b3025300 b3025300  ..S...S...S...S.
 10210 b3025300 23205400 13044400 93020000  ..S.# T...D.....
 10220 1303f0ff b3826240 b3826240 b3826240  ......b@..b@..b@
 10230 b3826240 b3826240 1303d0ff b3025340  ..b@..b@......S@
 10240 b3025340 b3025340 b3025340 b3025340  ..S@..S@..S@..S@
 10250 23205400 13044400 93021000 13031000  # T...D.........
 10260 b3926200 b3926200 b3926200 b3926200  ..b...b...b...b.
 10270 b3926200 13032000 b3125300 b3125300  ..b... ...S...S.
 10280 b3125300 b3125300 b3125300 23205400  ..S...S...S.# T.
 10290 13044400 9302f0ff 13031000 b3a26200  ..D...........b.
 102a0 b3a26200 b3a26200 b3a26200 b3a26200  ..b...b...b...b.
 102b0 1303f0ff b3225300 b3225300 b3225300  ....."S.."S.."S.
 102c0 b3225300 b3225300 23205400 13044400  ."S.."S.# T...D.
 102d0 9302f0ff 13031000 b3b26200 b3b26200  ..........b...b.
 102e0 b3b26200 b3b26200 b3b26200 b3b26200  ..b...b...b...b.
 102f0 13030000 b3325300 b3325300 b3325300  .....2S..2S..2S.
 10300 b3325300 b3325300 23205400 13044400  .2S..2S.# T...D.
 10310 9302f0ff 37f3f0f0 1303030f b3c26200  ....7.........b.
 10320 b3c26200 b3c26200 b3c26200 b3c26200  ..b...b...b...b.
 10330 37737777 13037377 b3425300 b3425300  7sww..sw.BS..BS.
 10340 b3425300 b3425300 b3425300 23205400  .BS..BS..BS.# T.
 10350 13044400 9302f0ff 37b3ec75 13034386  ..D.....7..u..C.
 10360 b3d26200 b3d26200 b3d26200 b3d26200  ..b...b...b...b.
 10370 b3d26200 37533412 13038367 b3525300  ..b.7S4....g.RS.
 10380 b3525300 b3525300 b3525300 b3525300  .RS..RS..RS..RS.
 10390 23205400 13044400 b7426587 93821232  # T...D..Be....2
 103a0 13034000 b3d26240 b3d26240 b3d26240  ..@...b@..b@..b@
 103b0 b3d26240 b3d26240 37737777 13037377  ..b@..b@7sww..sw
 103c0 b3525340 b3525340 b3525340 b3525340  .RS@.RS@.RS@.RS@
 103d0 b3525340 23205400 13044400 b7523412  .RS@# T...D..R4.
 103e0 93828267 37c3dcfe 130383a9 b3e26200  ...g7.........b.
 103f0 b3e26200 b3e26200 b3e26200 b3e26200  ..b...b...b...b.
 10400 37034062 13035328 b3625300 b3625300  7.@b..S(.bS..bS.
 10410 b3625300 b3625300 b3625300 23205400  .bS..bS..bS.# T.
 10420 13044400 b7523412 93828267 1303f0ff  ..D..R4....g....
 10430 b3f26200 b3f26200 b3f26200 b3f26200  ..b...b...b...b.
 10440 b3f26200 37f3f0f0 1303030f b3725300  ..b.7........rS.
 10450 b3725300 b3725300 b3725300 b3725300  .rS..rS..rS..rS.
 10460 23205400 13044400 17130000 130303a5  # T...D.........
 10470 83220300 1301c1fe 23205100 93020100  ."......# Q.....
 10480 23225100 93024100 23245100 93028100  #"Q...A.#$Q.....
 10490 23265100 9302c100 23285100 93020101  #&Q.....#(Q.....
 104a0 83a20200 83a20200 83a20200 83a20200  ................
 104b0 83a20200 13014101 0323c1ff 832381ff  ......A..#...#..
 104c0 032e41ff 832e01ff 032fc1fe 3303d301  ..A....../..3...
 104d0 b383c301 33037340 3303e301 b3826200  ....3.s@3.....b.
 104e0 13040401 232854fe 030304ff 831304ff  ....#(T.........
 104f0 034e04ff 835e04ff 232a64fe 232c74fe  .N...^..#*d.#,t.
 10500 232ec4ff 2320d401 13044400 9302f0ff  #...# ....D.....
 10510 9382f2ff 93825276 93828288 93822243  ......Rv......"C
 10520 9382c2ab 13031052 930323ce 130eb313  .......R..#.....
 10530 930e9349 130f1380 930f83a6 b383c301  ...I............
 10540 b38eee01 b382f201 b383d301 b3827200  ..............r.
 10550 23205400 13044400 9302f0ff 93a2f2ff  # T...D.........
 10560 93a2823e 93a20283 93a21200 93a27245  ...>..........rE
 10570 130360c6 932343c9 132eb322 932e4383  ..`..#C...."..C.
 10580 132f0300 932f63c6 b383c301 b38eee01  ./.../c.........
 10590 b382f201 b383d301 b3827200 23205400  ..........r.# T.
 105a0 13044400 9302e0ff 93b2f2ff 93b2823e  ..D............>
 105b0 93b20283 93b212f0 93b21200 37c3aaaa  ............7...
 105c0 1303b3bb 933343c9 133eb322 933e4383  .....3C..>.".>C.
 105d0 133f0300 933f63c6 b383c301 b38eee01  .?...?c.........
 105e0 b382f201 b383d301 b3827200 23205400  ..........r.# T.
 105f0 13044400 9302f0ff 93c2b207 93c25297  ..D...........R.
 10600 93c212cc 93c2127f 93c2324a 13037038  ..........2J..p8
 10610 934333ee 134e430a 934e636e 134f9389  .C3..NC..Ncn.O..
 10620 934f934b b383c301 b38eee01 b382f201  .O.K............
 10630 b383d301 b3827200 23205400 13044400  ......r.# T...D.
 10640 93021000 93e2c21b 93e2526e 93e2d2ed  ..........Rn....
 10650 93e2c209 93e22250 13033078 9363d311  ......"P..0x.c..
 10660 136ec3f5 936ea391 136f7376 936f73b4  .n...n...osv.os.
 10670 b383c301 b38eee01 b382f201 b383d301  ................
 10680 b3827200 23205400 13044400 b7f2cdab  ..r.# T...D.....
 10690 938282f9 93f232eb 93f242f4 93f29220  ......2...B.... 
 106a0 93f272e8 93f25235 37533412 13038367  ..r...R57S4....g
 106b0 9373137f 137ea30d 937e43ec 137ff34a  .s...~...~C....J
 106c0 937f93cf b383c301 b38eee01 b382f201  ................
 106d0 b383d301 b3827200 23205400 13044400  ......r.# T...D.
 106e0 9302a000 93922200 93925200 93927200  ......"...R...r.
 106f0 9392a200 93926200 3743b21a 130343cd  ......b.7C....C.
 10700 9313f300 131e6300 931ec301 131f1301  ......c.........
 10710 931f7300 b383c301 b38eee01 b382f201  ..s.............
 10720 b383d301 b3827200 23205400 13044400  ......r.# T...D.
 10730 b7c2b2a1 9382423d 93d23200 93d24200  ......B=..2...B.
 10740 93d26200 93d2b200 93d27200 3783bfaa  ..b.......r.7...
 10750 1303c390 93539301 135e0301 935e2301  .....S...^...^#.
 10760 135fb301 935f1301 b383c301 b38eee01  ._..._..........
 10770 b382f201 b383d301 b3827200 23205400  ..........r.# T.
 10780 13044400 b7c2b2a1 9382423d 93d25240  ..D.......B=..R@
 10790 93d22240 93d28240 93d29240 93d24240  .."@...@...@..B@
 107a0 3783bfaa 1303c390 9353d340 135e8340  7........S.@.^.@
 107b0 935e9340 135fe340 935f4340 b383c301  .^.@._.@._C@....
 107c0 b38eee01 b382f201 b383d301 b3827200  ..............r.
 107d0 23205400 13044400 b7f2ffff 17030000  # T...D.........
 107e0 13030302 67030300 93e21200 67034300  ....g.......g.C.
 107f0 93e24200 67034300 93e20201 67034300  ..B.g.C.....g.C.
 10800 93e21200 67034300 93e28200 17030000  ....g.C.........
 10810 13030303 e70303fe 93e20202 670e83fe  ............g...
 10820 93e20204 e70e03ff 93e20208 670f83ff  ............g...
 10830 93e20210 e70f0300 93e20220 b383c341  ........... ...A
 10840 b38eee41 b38f6f40 b383d301 3383f301  ...A..o@....3...
 10850 b3926200 23205400 13044400 9302f000  ..b.# T...D.....
 10860 1303000f b7130000 938303f0 37fe0000  ............7...
 10870 b75e3412 938e8e67 13044401 232e54fe  .^4....g..D.#.T.
 10880 232c64fe 232a74fe 2328c4ff 2326d4ff  #,d.#*t.#(..#&..
 10890 13044401 032f84fd 832e04ff 232ee4ff  ..D../......#...
 108a0 230ce4ff 231ae4ff a309e4ff 2317e4ff  #...#.......#...
 108b0 832204ff 0323c4fe b3035300 13044400  ."...#....S...D.
 108c0 232e74fe b7f2ffff 37f3ffff 37130000  #.t.....7...7...
 108d0 130303ff 638c6202 638a6202 63886202  ....c.b.c.b.c.b.
 108e0 63866202 63846202 37f3ffff 37130000  c.b.c.b.7...7...
 108f0 1303f3ff 630c5300 630a5300 63085300  ....c.S.c.S.c.S.
 10900 63065300 63045300 6f008000 93e21200  c.S.c.S.o.......
 10910 1343f3ff 63846200 93e22200 23205400  .C..c.b...".# T.
 10920 13044400 b7f2ffff 37130000 130303ff  ..D.....7.......
 10930 37f3ffff 639c6202 639a6202 63986202  7...c.b.c.b.c.b.
 10940 63966202 63946202 37130000 1303f3ff  c.b.c.b.7.......
 10950 37f3ffff 631c5300 631a5300 63185300  7...c.S.c.S.c.S.
 10960 63165300 63145300 6f008000 93e21200  c.S.c.S.o.......
 10970 1343f3ff 63946200 93e22200 23205400  .C..c.b...".# T.
 10980 13044400 b7f2ffff 37130000 130303ff  ..D.....7.......
 10990 1383c2ff 63cc6202 63ca6202 63c86202  ....c.b.c.b.c.b.
 109a0 63c66202 63c46202 37130000 1303f3ff  c.b.c.b.7.......
 109b0 13834200 634c5300 634a5300 63485300  ..B.cLS.cJS.cHS.
 109c0 63465300 63445300 6f008000 93e21200  cFS.cDS.o.......
 109d0 37130000 1303f3ff 63c46200 93e22200  7.......c.b...".
 109e0 13830200 63c46200 6f008000 93e24200  ....c.b.o.....B.
 109f0 37f3ffff 1303e3ee 63c46200 6f008000  7.......c.b.o...
 10a00 93e28200 23205400 13044400 b7f2ffff  ....# T...D.....
 10a10 37f3ffff 13834200 63da6202 63d86202  7.....B.c.b.c.b.
 10a20 63d66202 63d46202 63d26202 3703ffff  c.b.c.b.c.b.7...
 10a30 1383c2ff 635c5300 635a5300 63585300  ....c\S.cZS.cXS.
 10a40 63565300 63545300 6f008000 93e21200  cVS.cTS.o.......
 10a50 37130000 1303f3ff 63d46200 6f008000  7.......c.b.o...
 10a60 93e22200 13830200 63d46200 93e24200  ..".....c.b...B.
 10a70 37f3ffff 1303e3ee 63d46200 93e28200  7.......c.b.....
 10a80 23205400 13044400 b7f2ffff 130300f0  # T...D.........
 10a90 1383c2ff 63ea6202 63e86202 63e66202  ....c.b.c.b.c.b.
 10aa0 63e46202 63e26202 1303f0ff 13834200  c.b.c.b.......B.
 10ab0 636c5300 636a5300 63685300 63665300  clS.cjS.chS.cfS.
 10ac0 63645300 6f008000 93e21200 1303f0ff  cdS.o...........
 10ad0 63e46200 93e22200 13830200 63e46200  c.b...".....c.b.
 10ae0 6f008000 93e24200 37130000 1303f3ff  o.....B.7.......
 10af0 63e46200 6f008000 93e28200 23205400  c.b.o.......# T.
 10b00 13044400 b7f2ffff 37f3ffff 13834200  ..D.....7.....B.
 10b10 63fc6202 63fa6202 63f86202 63f66202  c.b.c.b.c.b.c.b.
 10b20 63f46202 37130000 1303f3ff 1383c2ff  c.b.7...........
 10b30 637c5300 637a5300 63785300 63765300  c|S.czS.cxS.cvS.
 10b40 63745300 6f008000 93e21200 1303f0ff  ctS.o...........
 10b50 63f46200 6f008000 93e22200 13830200  c.b.o.....".....
 10b60 63f46200 93e24200 37130000 1303f3ff  c.b...B.7.......
 10b70 63f46200 93e28200 23205400 13044400  c.b.....# T...D.
 10b80 97020000 17f3ffff 97935713 33037300  ..........W.3.s.
 10b90 b3826200 23205400 13044400 b7020000  ..b.# T...D.....
 10ba0 37f3ffff b7935713 33037300 b3826200  7.....W.3.s...b.
 10bb0 23205400 13044400 b7f2ffff 6f038000  # T...D.....o...
 10bc0 93e21200 97030000 93830300 33836340  ............3.c@
 10bd0 b3826200 23205400 13044400 b7020f00  ..b.# T...D.....
 10be0 93828200 73900230 f3130030 731e0030  ....s..0...0s..0
 10bf0 3383c301 23206400 13044400 b7120000  3...# d...D.....
 10c00 938222a3 73904230 f3134030 731e4030  ..".s.B0..@0s.@0
 10c10 3383c301 23206400 13044400 b7520e00  3...# d...D..R..
 10c20 9382020f 73905230 f3135030 731e5030  ....s.R0..P0s.P0
 10c30 3383c301 23206400 13044400 b7520e00  3...# d...D..R..
 10c40 9382020f 73901234 f3131034 731e1034  ....s..4...4s..4
 10c50 3383c301 23206400 13044400 b7120000  3...# d...D.....
 10c60 9382f2ff 73904234 f3134034 731e4034  ....s.B4..@4s.@4
 10c70 3383c301 23206400 13044400 73d00430  3...# d...D.s..0
 10c80 73130030 23206400 13044400 73505030  s..0# d...D.sPP0
 10c90 73135030 23206400 13044400 73501834  s.P0# d...D.sP.4
 10ca0 73131034 23206400 13044400 73d04734  s..4# d...D.s.G4
 10cb0 73134034 23206400 13044400 b7020f00  s.@4# d...D.....
 10cc0 93828200 37030f00 13038300 73900230  ....7.......s..0
 10cd0 f3220330 f3130030 23207400 13044400  .".0...0# t...D.
 10ce0 b7020f00 93828200 73900230 f3e20430  ........s..0...0
 10cf0 f3130030 23207400 13044400 b7220f00  ...0# t...D.."..
 10d00 93828288 37230f00 13030388 73900230  ....7#......s..0
 10d10 f3320330 f3130030 23207400 13044400  .2.0...0# t...D.
 10d20 b7220f00 93828288 73900230 f3f20430  ."......s..0...0
 10d30 f3130030 23207400 13044400 b7120000  ...0# t...D.....
 10d40 93824223 1303f000 b3826202 b3826202  ..B#......b...b.
 10d50 1303000a b3826202 1303e000 b3826202  ......b.......b.
 10d60 23205400 13044400 b7523412 93828267  # T...D..R4....g
 10d70 37f3f0f0 1303030f b3926202 b3926202  7.........b...b.
 10d80 3703ffff b3926202 b3926202 23205400  7.....b...b.# T.
 10d90 13044400 b7523412 93828267 37f3f0f0  ..D..R4....g7...
 10da0 1303030f b3b26202 b3b26202 3703ffff  ......b...b.7...
 10db0 b3b26202 b3b26202 23205400 13044400  ..b...b.# T...D.
 10dc0 b7f2f0f0 9382020f 37f3f0f0 1303030f  ........7.......
 10dd0 b3a26202 b3a26202 3703ffff b3a26202  ..b...b.7.....b.
 10de0 b3a26202 23205400 13044400 b7523412  ..b.# T...D..R4.
 10df0 93828267 37f3f0f0 1303030f b3f36240  ...g7.........b@
 10e00 23207400 13044400 b7523412 93828267  # t...D..R4....g
 10e10 37f3f0f0 1303030f b3e36240 23207400  7.........b@# t.
 10e20 13044400 b7523412 93828267 37f3f0f0  ..D..R4....g7...
 10e30 1303030f b3c36240 23207400 13044400  ......b@# t...D.
 10e40 b7523412 93828267 13034000 b3936260  .R4....g..@...b`
 10e50 23207400 13044400 b7523412 93828267  # t...D..R4....g
 10e60 13034000 b3d36260 23207400 13044400  ..@...b`# t...D.
 10e70 9302f0ff 13035000 b3936248 23207400  ......P...bH# t.
 10e80 13044400 93020000 13035000 b3936228  ..D.......P...b(
 10e90 23207400 13044400 9302f000 13033000  # t...D.......0.
 10ea0 b3936268 23207400 13044400 03240100  ..bh# t...D..$..
 10eb0 13014100 67800000                    ..A.g...        
.rodata 區段的內容：
 10eb8 66666666                             ffff            
.sdata 區段的內容：
 20000 00000110 00000210                    ........        
.comment 區段的內容：
 0000 4743433a 20286730 34363936 64663039  GCC: (g04696df09
 0010 36332920 31342e32 2e3000             63) 14.2.0.     
.riscv.attributes 區段的內容：
 0000 41570000 00726973 63760001 4d000000  AW...riscv..M...
 0010 04100572 76333269 3270315f 6d327030  ...rv32i2p1_m2p0
 0020 5f663270 325f7a69 63737232 70305f7a  _f2p2_zicsr2p0_z
 0030 6d6d756c 3170305f 7a626131 70305f7a  mmul1p0_zba1p0_z
 0040 62623170 305f7a62 63317030 5f7a6273  bb1p0_zbc1p0_zbs
 0050 31703000 08010a0b                    1p0.....        

.text0 區段的反組譯：

00000000 <_start>:
   0:	00000093          	li	ra,0
   4:	00000113          	li	sp,0
   8:	00000193          	li	gp,0
   c:	00000213          	li	tp,0
  10:	00000293          	li	t0,0
  14:	00000313          	li	t1,0
  18:	00000393          	li	t2,0
  1c:	00000413          	li	s0,0
  20:	00000493          	li	s1,0
  24:	00000513          	li	a0,0
  28:	00000593          	li	a1,0
  2c:	00000613          	li	a2,0
  30:	00000693          	li	a3,0
  34:	00000713          	li	a4,0
  38:	00000793          	li	a5,0
  3c:	00000813          	li	a6,0
  40:	00000893          	li	a7,0
  44:	00000913          	li	s2,0
  48:	00000993          	li	s3,0
  4c:	00000a13          	li	s4,0
  50:	00000a93          	li	s5,0
  54:	00000b13          	li	s6,0
  58:	00000b93          	li	s7,0
  5c:	00000c13          	li	s8,0
  60:	00000c93          	li	s9,0
  64:	00000d13          	li	s10,0
  68:	00000d93          	li	s11,0
  6c:	00000e13          	li	t3,0
  70:	00000e93          	li	t4,0
  74:	00000f13          	li	t5,0
  78:	00000f93          	li	t6,0
  7c:	00020197          	auipc	gp,0x20
  80:	78418193          	addi	gp,gp,1924 # 20800 <_gp>

00000084 <init_bss>:
  84:	00020517          	auipc	a0,0x20
  88:	f8450513          	addi	a0,a0,-124 # 20008 <__bss_end>
  8c:	00020597          	auipc	a1,0x20
  90:	f7858593          	addi	a1,a1,-136 # 20004 <dma_addr_boot>
  94:	00000613          	li	a2,0
  98:	070000ef          	jal	108 <fill_block>

0000009c <init_sbss>:
  9c:	00020517          	auipc	a0,0x20
  a0:	f6450513          	addi	a0,a0,-156 # 20000 <WDT_addr>
  a4:	00020597          	auipc	a1,0x20
  a8:	f5858593          	addi	a1,a1,-168 # 1fffc <__rodata_end+0xf140>
  ac:	00000613          	li	a2,0
  b0:	058000ef          	jal	108 <fill_block>

000000b4 <write_stack_pattern>:
  b4:	00020517          	auipc	a0,0x20
  b8:	f5450513          	addi	a0,a0,-172 # 20008 <__bss_end>
  bc:	00021597          	auipc	a1,0x21
  c0:	f4858593          	addi	a1,a1,-184 # 21004 <_gp+0x804>
  c4:	00000613          	li	a2,0
  c8:	040000ef          	jal	108 <fill_block>

000000cc <init_stack>:
  cc:	00021117          	auipc	sp,0x21
  d0:	f3c10113          	addi	sp,sp,-196 # 21008 <__stack>

000000d4 <write_test_pattern>:
  d4:	20100517          	auipc	a0,0x20100
  d8:	f2c50513          	addi	a0,a0,-212 # 20100000 <_test_start>
  dc:	20101597          	auipc	a1,0x20101
  e0:	f2058593          	addi	a1,a1,-224 # 20100ffc <_test_start+0xffc>
  e4:	00000613          	li	a2,0
  e8:	020000ef          	jal	108 <fill_block>

000000ec <SystemInit>:
  ec:	0b4000ef          	jal	1a0 <boot>
  f0:	0e0100ef          	jal	101d0 <main>

000000f4 <SystemExit>:
  f4:	00030297          	auipc	t0,0x30
  f8:	f0828293          	addi	t0,t0,-248 # 2fffc <_sim_end>
  fc:	fff00313          	li	t1,-1
 100:	0062a023          	sw	t1,0(t0)

00000104 <dead_loop>:
 104:	0000006f          	j	104 <dead_loop>

00000108 <fill_block>:
 108:	00a5e863          	bltu	a1,a0,118 <fb_end>
 10c:	00c52023          	sw	a2,0(a0)
 110:	00450513          	addi	a0,a0,4
 114:	ff5ff06f          	j	108 <fill_block>

00000118 <fb_end>:
 118:	00008067          	ret

0000011c <configure_and_start_dma>:
 11c:	fe010113          	addi	sp,sp,-32
 120:	00112e23          	sw	ra,28(sp)
 124:	00812c23          	sw	s0,24(sp)
 128:	02010413          	addi	s0,sp,32
 12c:	fea42623          	sw	a0,-20(s0)
 130:	feb42423          	sw	a1,-24(s0)
 134:	fec42223          	sw	a2,-28(s0)
 138:	00800793          	li	a5,8
 13c:	3007a073          	csrs	mstatus,a5
 140:	28b01793          	bseti	a5,zero,0xb
 144:	3047a073          	csrs	mie,a5
 148:	100207b7          	lui	a5,0x10020
 14c:	20078793          	addi	a5,a5,512 # 10020200 <_end+0xfff0200>
 150:	fec42703          	lw	a4,-20(s0)
 154:	00e7a023          	sw	a4,0(a5)
 158:	100207b7          	lui	a5,0x10020
 15c:	30078793          	addi	a5,a5,768 # 10020300 <_end+0xfff0300>
 160:	fe842703          	lw	a4,-24(s0)
 164:	00e7a023          	sw	a4,0(a5)
 168:	100207b7          	lui	a5,0x10020
 16c:	40078793          	addi	a5,a5,1024 # 10020400 <_end+0xfff0400>
 170:	fe442703          	lw	a4,-28(s0)
 174:	00e7a023          	sw	a4,0(a5)
 178:	100207b7          	lui	a5,0x10020
 17c:	10078793          	addi	a5,a5,256 # 10020100 <_end+0xfff0100>
 180:	00100713          	li	a4,1
 184:	00e7a023          	sw	a4,0(a5)
 188:	10500073          	wfi
 18c:	00000013          	nop
 190:	01c12083          	lw	ra,28(sp)
 194:	01812403          	lw	s0,24(sp)
 198:	02010113          	addi	sp,sp,32
 19c:	00008067          	ret

000001a0 <boot>:
 1a0:	ff010113          	addi	sp,sp,-16
 1a4:	00112623          	sw	ra,12(sp)
 1a8:	00812423          	sw	s0,8(sp)
 1ac:	01010413          	addi	s0,sp,16
 1b0:	200007b7          	lui	a5,0x20000
 1b4:	00078693          	mv	a3,a5
 1b8:	000107b7          	lui	a5,0x10
 1bc:	00078593          	mv	a1,a5
 1c0:	200017b7          	lui	a5,0x20001
 1c4:	ebc78713          	addi	a4,a5,-324 # 20000ebc <_dram_i_end>
 1c8:	200007b7          	lui	a5,0x20000
 1cc:	00078793          	mv	a5,a5
 1d0:	40f707b3          	sub	a5,a4,a5
 1d4:	4027d793          	srai	a5,a5,0x2
 1d8:	00078613          	mv	a2,a5
 1dc:	00068513          	mv	a0,a3
 1e0:	f3dff0ef          	jal	11c <configure_and_start_dma>
 1e4:	201017b7          	lui	a5,0x20101
 1e8:	00878693          	addi	a3,a5,8 # 20101008 <__data_paddr_start>
 1ec:	000207b7          	lui	a5,0x20
 1f0:	00878593          	addi	a1,a5,8 # 20008 <__bss_end>
 1f4:	000207b7          	lui	a5,0x20
 1f8:	00878713          	addi	a4,a5,8 # 20008 <__bss_end>
 1fc:	000207b7          	lui	a5,0x20
 200:	00878793          	addi	a5,a5,8 # 20008 <__bss_end>
 204:	40f707b3          	sub	a5,a4,a5
 208:	4027d793          	srai	a5,a5,0x2
 20c:	00078613          	mv	a2,a5
 210:	00068513          	mv	a0,a3
 214:	f09ff0ef          	jal	11c <configure_and_start_dma>
 218:	201017b7          	lui	a5,0x20101
 21c:	00078693          	mv	a3,a5
 220:	000207b7          	lui	a5,0x20
 224:	00078593          	mv	a1,a5
 228:	000207b7          	lui	a5,0x20
 22c:	00878713          	addi	a4,a5,8 # 20008 <__bss_end>
 230:	000207b7          	lui	a5,0x20
 234:	00078793          	mv	a5,a5
 238:	40f707b3          	sub	a5,a4,a5
 23c:	4027d793          	srai	a5,a5,0x2
 240:	00078613          	mv	a2,a5
 244:	00068513          	mv	a0,a3
 248:	ed5ff0ef          	jal	11c <configure_and_start_dma>
 24c:	00000013          	nop
 250:	00c12083          	lw	ra,12(sp)
 254:	00812403          	lw	s0,8(sp)
 258:	01010113          	addi	sp,sp,16
 25c:	00008067          	ret

.text1 區段的反組譯：

00010000 <_imem_start>:
   10000:	f8410113          	addi	sp,sp,-124
   10004:	00112023          	sw	ra,0(sp)
   10008:	00212223          	sw	sp,4(sp)
   1000c:	00312423          	sw	gp,8(sp)
   10010:	00412623          	sw	tp,12(sp)
   10014:	00512823          	sw	t0,16(sp)
   10018:	00612a23          	sw	t1,20(sp)
   1001c:	00712c23          	sw	t2,24(sp)
   10020:	00812e23          	sw	s0,28(sp)
   10024:	02912023          	sw	s1,32(sp)
   10028:	02a12223          	sw	a0,36(sp)
   1002c:	02b12423          	sw	a1,40(sp)
   10030:	02c12623          	sw	a2,44(sp)
   10034:	02d12823          	sw	a3,48(sp)
   10038:	02e12a23          	sw	a4,52(sp)
   1003c:	02f12c23          	sw	a5,56(sp)
   10040:	03012e23          	sw	a6,60(sp)
   10044:	05112023          	sw	a7,64(sp)
   10048:	05212223          	sw	s2,68(sp)
   1004c:	05312423          	sw	s3,72(sp)
   10050:	05412623          	sw	s4,76(sp)
   10054:	05512823          	sw	s5,80(sp)
   10058:	05612a23          	sw	s6,84(sp)
   1005c:	05712c23          	sw	s7,88(sp)
   10060:	05812e23          	sw	s8,92(sp)
   10064:	07912023          	sw	s9,96(sp)
   10068:	07a12223          	sw	s10,100(sp)
   1006c:	07b12423          	sw	s11,104(sp)
   10070:	07c12623          	sw	t3,108(sp)
   10074:	07d12823          	sw	t4,112(sp)
   10078:	07e12a23          	sw	t5,116(sp)
   1007c:	07f12c23          	sw	t6,120(sp)
   10080:	100000ef          	jal	10180 <trap_handler>
   10084:	00012083          	lw	ra,0(sp)
   10088:	00412103          	lw	sp,4(sp)
   1008c:	00812183          	lw	gp,8(sp)
   10090:	00c12203          	lw	tp,12(sp)
   10094:	01012283          	lw	t0,16(sp)
   10098:	01412303          	lw	t1,20(sp)
   1009c:	01812383          	lw	t2,24(sp)
   100a0:	01c12403          	lw	s0,28(sp)
   100a4:	02012483          	lw	s1,32(sp)
   100a8:	02412503          	lw	a0,36(sp)
   100ac:	02812583          	lw	a1,40(sp)
   100b0:	02c12603          	lw	a2,44(sp)
   100b4:	03012683          	lw	a3,48(sp)
   100b8:	03412703          	lw	a4,52(sp)
   100bc:	03812783          	lw	a5,56(sp)
   100c0:	03c12803          	lw	a6,60(sp)
   100c4:	04012883          	lw	a7,64(sp)
   100c8:	04412903          	lw	s2,68(sp)
   100cc:	04812983          	lw	s3,72(sp)
   100d0:	04c12a03          	lw	s4,76(sp)
   100d4:	05012a83          	lw	s5,80(sp)
   100d8:	05412b03          	lw	s6,84(sp)
   100dc:	05812b83          	lw	s7,88(sp)
   100e0:	05c12c03          	lw	s8,92(sp)
   100e4:	06012c83          	lw	s9,96(sp)
   100e8:	06412d03          	lw	s10,100(sp)
   100ec:	06812d83          	lw	s11,104(sp)
   100f0:	06c12e03          	lw	t3,108(sp)
   100f4:	07012e83          	lw	t4,112(sp)
   100f8:	07412f03          	lw	t5,116(sp)
   100fc:	07812f83          	lw	t6,120(sp)
   10100:	07c10113          	addi	sp,sp,124
   10104:	30200073          	mret

00010108 <timer_interrupt_handler>:
   10108:	ff010113          	addi	sp,sp,-16
   1010c:	00112623          	sw	ra,12(sp)
   10110:	00812423          	sw	s0,8(sp)
   10114:	01010413          	addi	s0,sp,16
   10118:	30006073          	csrsi	mstatus,0
   1011c:	000207b7          	lui	a5,0x20
   10120:	0007a783          	lw	a5,0(a5) # 20000 <WDT_addr>
   10124:	10078793          	addi	a5,a5,256
   10128:	0007a023          	sw	zero,0(a5)
   1012c:	ed5ef06f          	j	0 <_start>
   10130:	00000013          	nop
   10134:	00c12083          	lw	ra,12(sp)
   10138:	00812403          	lw	s0,8(sp)
   1013c:	01010113          	addi	sp,sp,16
   10140:	00008067          	ret

00010144 <external_interrupt_handler>:
   10144:	fe010113          	addi	sp,sp,-32
   10148:	00112e23          	sw	ra,28(sp)
   1014c:	00812c23          	sw	s0,24(sp)
   10150:	02010413          	addi	s0,sp,32
   10154:	100207b7          	lui	a5,0x10020
   10158:	fef42623          	sw	a5,-20(s0)
   1015c:	30006073          	csrsi	mstatus,0
   10160:	fec42783          	lw	a5,-20(s0)
   10164:	10078793          	addi	a5,a5,256 # 10020100 <_end+0xfff0100>
   10168:	0007a023          	sw	zero,0(a5)
   1016c:	00000013          	nop
   10170:	01c12083          	lw	ra,28(sp)
   10174:	01812403          	lw	s0,24(sp)
   10178:	02010113          	addi	sp,sp,32
   1017c:	00008067          	ret

00010180 <trap_handler>:
   10180:	fe010113          	addi	sp,sp,-32
   10184:	00112e23          	sw	ra,28(sp)
   10188:	00812c23          	sw	s0,24(sp)
   1018c:	02010413          	addi	s0,sp,32
   10190:	344027f3          	csrr	a5,mip
   10194:	fef42623          	sw	a5,-20(s0)
   10198:	fec42783          	lw	a5,-20(s0)
   1019c:	0807f793          	andi	a5,a5,128
   101a0:	00078463          	beqz	a5,101a8 <trap_handler+0x28>
   101a4:	f65ff0ef          	jal	10108 <timer_interrupt_handler>
   101a8:	fec42703          	lw	a4,-20(s0)
   101ac:	28b01793          	bseti	a5,zero,0xb
   101b0:	00f777b3          	and	a5,a4,a5
   101b4:	00078463          	beqz	a5,101bc <trap_handler+0x3c>
   101b8:	f8dff0ef          	jal	10144 <external_interrupt_handler>
   101bc:	00000013          	nop
   101c0:	01c12083          	lw	ra,28(sp)
   101c4:	01812403          	lw	s0,24(sp)
   101c8:	02010113          	addi	sp,sp,32
   101cc:	00008067          	ret

000101d0 <main>:
   101d0:	ffc10113          	addi	sp,sp,-4
   101d4:	00812023          	sw	s0,0(sp)
   101d8:	200f0417          	auipc	s0,0x200f0
   101dc:	e2840413          	addi	s0,s0,-472 # 20100000 <_test_start>

000101e0 <add>:
   101e0:	fff00293          	li	t0,-1
   101e4:	fff00313          	li	t1,-1
   101e8:	006282b3          	add	t0,t0,t1
   101ec:	006282b3          	add	t0,t0,t1
   101f0:	006282b3          	add	t0,t0,t1
   101f4:	006282b3          	add	t0,t0,t1
   101f8:	006282b3          	add	t0,t0,t1
   101fc:	ffe00313          	li	t1,-2
   10200:	005302b3          	add	t0,t1,t0
   10204:	005302b3          	add	t0,t1,t0
   10208:	005302b3          	add	t0,t1,t0
   1020c:	005302b3          	add	t0,t1,t0
   10210:	005302b3          	add	t0,t1,t0
   10214:	00542023          	sw	t0,0(s0)
   10218:	00440413          	addi	s0,s0,4

0001021c <sub>:
   1021c:	00000293          	li	t0,0
   10220:	fff00313          	li	t1,-1
   10224:	406282b3          	sub	t0,t0,t1
   10228:	406282b3          	sub	t0,t0,t1
   1022c:	406282b3          	sub	t0,t0,t1
   10230:	406282b3          	sub	t0,t0,t1
   10234:	406282b3          	sub	t0,t0,t1
   10238:	ffd00313          	li	t1,-3
   1023c:	405302b3          	sub	t0,t1,t0
   10240:	405302b3          	sub	t0,t1,t0
   10244:	405302b3          	sub	t0,t1,t0
   10248:	405302b3          	sub	t0,t1,t0
   1024c:	405302b3          	sub	t0,t1,t0
   10250:	00542023          	sw	t0,0(s0)
   10254:	00440413          	addi	s0,s0,4

00010258 <sll>:
   10258:	00100293          	li	t0,1
   1025c:	00100313          	li	t1,1
   10260:	006292b3          	sll	t0,t0,t1
   10264:	006292b3          	sll	t0,t0,t1
   10268:	006292b3          	sll	t0,t0,t1
   1026c:	006292b3          	sll	t0,t0,t1
   10270:	006292b3          	sll	t0,t0,t1
   10274:	00200313          	li	t1,2
   10278:	005312b3          	sll	t0,t1,t0
   1027c:	005312b3          	sll	t0,t1,t0
   10280:	005312b3          	sll	t0,t1,t0
   10284:	005312b3          	sll	t0,t1,t0
   10288:	005312b3          	sll	t0,t1,t0
   1028c:	00542023          	sw	t0,0(s0)
   10290:	00440413          	addi	s0,s0,4

00010294 <slt>:
   10294:	fff00293          	li	t0,-1
   10298:	00100313          	li	t1,1
   1029c:	0062a2b3          	slt	t0,t0,t1
   102a0:	0062a2b3          	slt	t0,t0,t1
   102a4:	0062a2b3          	slt	t0,t0,t1
   102a8:	0062a2b3          	slt	t0,t0,t1
   102ac:	0062a2b3          	slt	t0,t0,t1
   102b0:	fff00313          	li	t1,-1
   102b4:	005322b3          	slt	t0,t1,t0
   102b8:	005322b3          	slt	t0,t1,t0
   102bc:	005322b3          	slt	t0,t1,t0
   102c0:	005322b3          	slt	t0,t1,t0
   102c4:	005322b3          	slt	t0,t1,t0
   102c8:	00542023          	sw	t0,0(s0)
   102cc:	00440413          	addi	s0,s0,4

000102d0 <sltu>:
   102d0:	fff00293          	li	t0,-1
   102d4:	00100313          	li	t1,1
   102d8:	0062b2b3          	sltu	t0,t0,t1
   102dc:	0062b2b3          	sltu	t0,t0,t1
   102e0:	0062b2b3          	sltu	t0,t0,t1
   102e4:	0062b2b3          	sltu	t0,t0,t1
   102e8:	0062b2b3          	sltu	t0,t0,t1
   102ec:	0062b2b3          	sltu	t0,t0,t1
   102f0:	00000313          	li	t1,0
   102f4:	005332b3          	sltu	t0,t1,t0
   102f8:	005332b3          	sltu	t0,t1,t0
   102fc:	005332b3          	sltu	t0,t1,t0
   10300:	005332b3          	sltu	t0,t1,t0
   10304:	005332b3          	sltu	t0,t1,t0
   10308:	00542023          	sw	t0,0(s0)
   1030c:	00440413          	addi	s0,s0,4

00010310 <xor>:
   10310:	fff00293          	li	t0,-1
   10314:	f0f0f337          	lui	t1,0xf0f0f
   10318:	0f030313          	addi	t1,t1,240 # f0f0f0f0 <__data_paddr_start+0xd0e0e0e8>
   1031c:	0062c2b3          	xor	t0,t0,t1
   10320:	0062c2b3          	xor	t0,t0,t1
   10324:	0062c2b3          	xor	t0,t0,t1
   10328:	0062c2b3          	xor	t0,t0,t1
   1032c:	0062c2b3          	xor	t0,t0,t1
   10330:	77777337          	lui	t1,0x77777
   10334:	77730313          	addi	t1,t1,1911 # 77777777 <__data_paddr_start+0x5767676f>
   10338:	005342b3          	xor	t0,t1,t0
   1033c:	005342b3          	xor	t0,t1,t0
   10340:	005342b3          	xor	t0,t1,t0
   10344:	005342b3          	xor	t0,t1,t0
   10348:	005342b3          	xor	t0,t1,t0
   1034c:	00542023          	sw	t0,0(s0)
   10350:	00440413          	addi	s0,s0,4

00010354 <srl>:
   10354:	fff00293          	li	t0,-1
   10358:	75ecb337          	lui	t1,0x75ecb
   1035c:	86430313          	addi	t1,t1,-1948 # 75eca864 <__data_paddr_start+0x55dc985c>
   10360:	0062d2b3          	srl	t0,t0,t1
   10364:	0062d2b3          	srl	t0,t0,t1
   10368:	0062d2b3          	srl	t0,t0,t1
   1036c:	0062d2b3          	srl	t0,t0,t1
   10370:	0062d2b3          	srl	t0,t0,t1
   10374:	12345337          	lui	t1,0x12345
   10378:	67830313          	addi	t1,t1,1656 # 12345678 <_end+0x12315678>
   1037c:	005352b3          	srl	t0,t1,t0
   10380:	005352b3          	srl	t0,t1,t0
   10384:	005352b3          	srl	t0,t1,t0
   10388:	005352b3          	srl	t0,t1,t0
   1038c:	005352b3          	srl	t0,t1,t0
   10390:	00542023          	sw	t0,0(s0)
   10394:	00440413          	addi	s0,s0,4

00010398 <sra>:
   10398:	876542b7          	lui	t0,0x87654
   1039c:	32128293          	addi	t0,t0,801 # 87654321 <__data_paddr_start+0x67553319>
   103a0:	00400313          	li	t1,4
   103a4:	4062d2b3          	sra	t0,t0,t1
   103a8:	4062d2b3          	sra	t0,t0,t1
   103ac:	4062d2b3          	sra	t0,t0,t1
   103b0:	4062d2b3          	sra	t0,t0,t1
   103b4:	4062d2b3          	sra	t0,t0,t1
   103b8:	77777337          	lui	t1,0x77777
   103bc:	77730313          	addi	t1,t1,1911 # 77777777 <__data_paddr_start+0x5767676f>
   103c0:	405352b3          	sra	t0,t1,t0
   103c4:	405352b3          	sra	t0,t1,t0
   103c8:	405352b3          	sra	t0,t1,t0
   103cc:	405352b3          	sra	t0,t1,t0
   103d0:	405352b3          	sra	t0,t1,t0
   103d4:	00542023          	sw	t0,0(s0)
   103d8:	00440413          	addi	s0,s0,4

000103dc <or>:
   103dc:	123452b7          	lui	t0,0x12345
   103e0:	67828293          	addi	t0,t0,1656 # 12345678 <_end+0x12315678>
   103e4:	fedcc337          	lui	t1,0xfedcc
   103e8:	a9830313          	addi	t1,t1,-1384 # fedcba98 <__data_paddr_start+0xdeccaa90>
   103ec:	0062e2b3          	or	t0,t0,t1
   103f0:	0062e2b3          	or	t0,t0,t1
   103f4:	0062e2b3          	or	t0,t0,t1
   103f8:	0062e2b3          	or	t0,t0,t1
   103fc:	0062e2b3          	or	t0,t0,t1
   10400:	62400337          	lui	t1,0x62400
   10404:	28530313          	addi	t1,t1,645 # 62400285 <__data_paddr_start+0x422ff27d>
   10408:	005362b3          	or	t0,t1,t0
   1040c:	005362b3          	or	t0,t1,t0
   10410:	005362b3          	or	t0,t1,t0
   10414:	005362b3          	or	t0,t1,t0
   10418:	005362b3          	or	t0,t1,t0
   1041c:	00542023          	sw	t0,0(s0)
   10420:	00440413          	addi	s0,s0,4

00010424 <and>:
   10424:	123452b7          	lui	t0,0x12345
   10428:	67828293          	addi	t0,t0,1656 # 12345678 <_end+0x12315678>
   1042c:	fff00313          	li	t1,-1
   10430:	0062f2b3          	and	t0,t0,t1
   10434:	0062f2b3          	and	t0,t0,t1
   10438:	0062f2b3          	and	t0,t0,t1
   1043c:	0062f2b3          	and	t0,t0,t1
   10440:	0062f2b3          	and	t0,t0,t1
   10444:	f0f0f337          	lui	t1,0xf0f0f
   10448:	0f030313          	addi	t1,t1,240 # f0f0f0f0 <__data_paddr_start+0xd0e0e0e8>
   1044c:	005372b3          	and	t0,t1,t0
   10450:	005372b3          	and	t0,t1,t0
   10454:	005372b3          	and	t0,t1,t0
   10458:	005372b3          	and	t0,t1,t0
   1045c:	005372b3          	and	t0,t1,t0
   10460:	00542023          	sw	t0,0(s0)
   10464:	00440413          	addi	s0,s0,4

00010468 <load>:
   10468:	00001317          	auipc	t1,0x1
   1046c:	a5030313          	addi	t1,t1,-1456 # 10eb8 <__rodata_start>
   10470:	00032283          	lw	t0,0(t1)
   10474:	fec10113          	addi	sp,sp,-20
   10478:	00512023          	sw	t0,0(sp)
   1047c:	00010293          	mv	t0,sp
   10480:	00512223          	sw	t0,4(sp)
   10484:	00410293          	addi	t0,sp,4
   10488:	00512423          	sw	t0,8(sp)
   1048c:	00810293          	addi	t0,sp,8
   10490:	00512623          	sw	t0,12(sp)
   10494:	00c10293          	addi	t0,sp,12
   10498:	00512823          	sw	t0,16(sp)
   1049c:	01010293          	addi	t0,sp,16
   104a0:	0002a283          	lw	t0,0(t0)
   104a4:	0002a283          	lw	t0,0(t0)
   104a8:	0002a283          	lw	t0,0(t0)
   104ac:	0002a283          	lw	t0,0(t0)
   104b0:	0002a283          	lw	t0,0(t0)
   104b4:	01410113          	addi	sp,sp,20
   104b8:	ffc12303          	lw	t1,-4(sp)
   104bc:	ff812383          	lw	t2,-8(sp)
   104c0:	ff412e03          	lw	t3,-12(sp)
   104c4:	ff012e83          	lw	t4,-16(sp)
   104c8:	fec12f03          	lw	t5,-20(sp)
   104cc:	01d30333          	add	t1,t1,t4
   104d0:	01c383b3          	add	t2,t2,t3
   104d4:	40730333          	sub	t1,t1,t2
   104d8:	01e30333          	add	t1,t1,t5
   104dc:	006282b3          	add	t0,t0,t1
   104e0:	01040413          	addi	s0,s0,16
   104e4:	fe542823          	sw	t0,-16(s0)
   104e8:	ff040303          	lb	t1,-16(s0)
   104ec:	ff041383          	lh	t2,-16(s0)
   104f0:	ff044e03          	lbu	t3,-16(s0)
   104f4:	ff045e83          	lhu	t4,-16(s0)
   104f8:	fe642a23          	sw	t1,-12(s0)
   104fc:	fe742c23          	sw	t2,-8(s0)
   10500:	ffc42e23          	sw	t3,-4(s0)
   10504:	01d42023          	sw	t4,0(s0)
   10508:	00440413          	addi	s0,s0,4

0001050c <addi>:
   1050c:	fff00293          	li	t0,-1
   10510:	fff28293          	addi	t0,t0,-1
   10514:	76528293          	addi	t0,t0,1893
   10518:	88828293          	addi	t0,t0,-1912
   1051c:	43228293          	addi	t0,t0,1074
   10520:	abc28293          	addi	t0,t0,-1348
   10524:	52100313          	li	t1,1313
   10528:	ce230393          	addi	t2,t1,-798
   1052c:	13b30e13          	addi	t3,t1,315
   10530:	49930e93          	addi	t4,t1,1177
   10534:	80130f13          	addi	t5,t1,-2047
   10538:	a6830f93          	addi	t6,t1,-1432
   1053c:	01c383b3          	add	t2,t2,t3
   10540:	01ee8eb3          	add	t4,t4,t5
   10544:	01f282b3          	add	t0,t0,t6
   10548:	01d383b3          	add	t2,t2,t4
   1054c:	007282b3          	add	t0,t0,t2
   10550:	00542023          	sw	t0,0(s0)
   10554:	00440413          	addi	s0,s0,4

00010558 <slti>:
   10558:	fff00293          	li	t0,-1
   1055c:	fff2a293          	slti	t0,t0,-1
   10560:	3e82a293          	slti	t0,t0,1000
   10564:	8302a293          	slti	t0,t0,-2000
   10568:	0012a293          	slti	t0,t0,1
   1056c:	4572a293          	slti	t0,t0,1111
   10570:	c6600313          	li	t1,-922
   10574:	c9432393          	slti	t2,t1,-876
   10578:	22b32e13          	slti	t3,t1,555
   1057c:	83432e93          	slti	t4,t1,-1996
   10580:	00032f13          	slti	t5,t1,0
   10584:	c6632f93          	slti	t6,t1,-922
   10588:	01c383b3          	add	t2,t2,t3
   1058c:	01ee8eb3          	add	t4,t4,t5
   10590:	01f282b3          	add	t0,t0,t6
   10594:	01d383b3          	add	t2,t2,t4
   10598:	007282b3          	add	t0,t0,t2
   1059c:	00542023          	sw	t0,0(s0)
   105a0:	00440413          	addi	s0,s0,4

000105a4 <sltiu>:
   105a4:	ffe00293          	li	t0,-2
   105a8:	fff2b293          	sltiu	t0,t0,-1
   105ac:	3e82b293          	sltiu	t0,t0,1000
   105b0:	8302b293          	sltiu	t0,t0,-2000
   105b4:	f012b293          	sltiu	t0,t0,-255
   105b8:	0012b293          	seqz	t0,t0
   105bc:	aaaac337          	lui	t1,0xaaaac
   105c0:	bbb30313          	addi	t1,t1,-1093 # aaaabbbb <__data_paddr_start+0x8a9aabb3>
   105c4:	c9433393          	sltiu	t2,t1,-876
   105c8:	22b33e13          	sltiu	t3,t1,555
   105cc:	83433e93          	sltiu	t4,t1,-1996
   105d0:	00033f13          	sltiu	t5,t1,0
   105d4:	c6633f93          	sltiu	t6,t1,-922
   105d8:	01c383b3          	add	t2,t2,t3
   105dc:	01ee8eb3          	add	t4,t4,t5
   105e0:	01f282b3          	add	t0,t0,t6
   105e4:	01d383b3          	add	t2,t2,t4
   105e8:	007282b3          	add	t0,t0,t2
   105ec:	00542023          	sw	t0,0(s0)
   105f0:	00440413          	addi	s0,s0,4

000105f4 <xori>:
   105f4:	fff00293          	li	t0,-1
   105f8:	07b2c293          	xori	t0,t0,123
   105fc:	9752c293          	xori	t0,t0,-1675
   10600:	cc12c293          	xori	t0,t0,-831
   10604:	7f12c293          	xori	t0,t0,2033
   10608:	4a32c293          	xori	t0,t0,1187
   1060c:	38700313          	li	t1,903
   10610:	ee334393          	xori	t2,t1,-285
   10614:	0a434e13          	xori	t3,t1,164
   10618:	6e634e93          	xori	t4,t1,1766
   1061c:	89934f13          	xori	t5,t1,-1895
   10620:	4b934f93          	xori	t6,t1,1209
   10624:	01c383b3          	add	t2,t2,t3
   10628:	01ee8eb3          	add	t4,t4,t5
   1062c:	01f282b3          	add	t0,t0,t6
   10630:	01d383b3          	add	t2,t2,t4
   10634:	007282b3          	add	t0,t0,t2
   10638:	00542023          	sw	t0,0(s0)
   1063c:	00440413          	addi	s0,s0,4

00010640 <ori>:
   10640:	00100293          	li	t0,1
   10644:	1bc2e293          	ori	t0,t0,444
   10648:	6e52e293          	ori	t0,t0,1765
   1064c:	edd2e293          	ori	t0,t0,-291
   10650:	09c2e293          	ori	t0,t0,156
   10654:	5022e293          	ori	t0,t0,1282
   10658:	78300313          	li	t1,1923
   1065c:	11d36393          	ori	t2,t1,285
   10660:	f5c36e13          	ori	t3,t1,-164
   10664:	91a36e93          	ori	t4,t1,-1766
   10668:	76736f13          	ori	t5,t1,1895
   1066c:	b4736f93          	ori	t6,t1,-1209
   10670:	01c383b3          	add	t2,t2,t3
   10674:	01ee8eb3          	add	t4,t4,t5
   10678:	01f282b3          	add	t0,t0,t6
   1067c:	01d383b3          	add	t2,t2,t4
   10680:	007282b3          	add	t0,t0,t2
   10684:	00542023          	sw	t0,0(s0)
   10688:	00440413          	addi	s0,s0,4

0001068c <andi>:
   1068c:	abcdf2b7          	lui	t0,0xabcdf
   10690:	f9828293          	addi	t0,t0,-104 # abcdef98 <__data_paddr_start+0x8bbddf90>
   10694:	eb32f293          	andi	t0,t0,-333
   10698:	f442f293          	andi	t0,t0,-188
   1069c:	2092f293          	andi	t0,t0,521
   106a0:	e872f293          	andi	t0,t0,-377
   106a4:	3552f293          	andi	t0,t0,853
   106a8:	12345337          	lui	t1,0x12345
   106ac:	67830313          	addi	t1,t1,1656 # 12345678 <_end+0x12315678>
   106b0:	7f137393          	andi	t2,t1,2033
   106b4:	0da37e13          	andi	t3,t1,218
   106b8:	ec437e93          	andi	t4,t1,-316
   106bc:	4af37f13          	andi	t5,t1,1199
   106c0:	cf937f93          	andi	t6,t1,-775
   106c4:	01c383b3          	add	t2,t2,t3
   106c8:	01ee8eb3          	add	t4,t4,t5
   106cc:	01f282b3          	add	t0,t0,t6
   106d0:	01d383b3          	add	t2,t2,t4
   106d4:	007282b3          	add	t0,t0,t2
   106d8:	00542023          	sw	t0,0(s0)
   106dc:	00440413          	addi	s0,s0,4

000106e0 <slli>:
   106e0:	00a00293          	li	t0,10
   106e4:	00229293          	slli	t0,t0,0x2
   106e8:	00529293          	slli	t0,t0,0x5
   106ec:	00729293          	slli	t0,t0,0x7
   106f0:	00a29293          	slli	t0,t0,0xa
   106f4:	00629293          	slli	t0,t0,0x6
   106f8:	1ab24337          	lui	t1,0x1ab24
   106fc:	cd430313          	addi	t1,t1,-812 # 1ab23cd4 <_end+0x1aaf3cd4>
   10700:	00f31393          	slli	t2,t1,0xf
   10704:	00631e13          	slli	t3,t1,0x6
   10708:	01c31e93          	slli	t4,t1,0x1c
   1070c:	01131f13          	slli	t5,t1,0x11
   10710:	00731f93          	slli	t6,t1,0x7
   10714:	01c383b3          	add	t2,t2,t3
   10718:	01ee8eb3          	add	t4,t4,t5
   1071c:	01f282b3          	add	t0,t0,t6
   10720:	01d383b3          	add	t2,t2,t4
   10724:	007282b3          	add	t0,t0,t2
   10728:	00542023          	sw	t0,0(s0)
   1072c:	00440413          	addi	s0,s0,4

00010730 <srli>:
   10730:	a1b2c2b7          	lui	t0,0xa1b2c
   10734:	3d428293          	addi	t0,t0,980 # a1b2c3d4 <__data_paddr_start+0x81a2b3cc>
   10738:	0032d293          	srli	t0,t0,0x3
   1073c:	0042d293          	srli	t0,t0,0x4
   10740:	0062d293          	srli	t0,t0,0x6
   10744:	00b2d293          	srli	t0,t0,0xb
   10748:	0072d293          	srli	t0,t0,0x7
   1074c:	aabf8337          	lui	t1,0xaabf8
   10750:	90c30313          	addi	t1,t1,-1780 # aabf790c <__data_paddr_start+0x8aaf6904>
   10754:	01935393          	srli	t2,t1,0x19
   10758:	01035e13          	srli	t3,t1,0x10
   1075c:	01235e93          	srli	t4,t1,0x12
   10760:	01b35f13          	srli	t5,t1,0x1b
   10764:	01135f93          	srli	t6,t1,0x11
   10768:	01c383b3          	add	t2,t2,t3
   1076c:	01ee8eb3          	add	t4,t4,t5
   10770:	01f282b3          	add	t0,t0,t6
   10774:	01d383b3          	add	t2,t2,t4
   10778:	007282b3          	add	t0,t0,t2
   1077c:	00542023          	sw	t0,0(s0)
   10780:	00440413          	addi	s0,s0,4

00010784 <srai>:
   10784:	a1b2c2b7          	lui	t0,0xa1b2c
   10788:	3d428293          	addi	t0,t0,980 # a1b2c3d4 <__data_paddr_start+0x81a2b3cc>
   1078c:	4052d293          	srai	t0,t0,0x5
   10790:	4022d293          	srai	t0,t0,0x2
   10794:	4082d293          	srai	t0,t0,0x8
   10798:	4092d293          	srai	t0,t0,0x9
   1079c:	4042d293          	srai	t0,t0,0x4
   107a0:	aabf8337          	lui	t1,0xaabf8
   107a4:	90c30313          	addi	t1,t1,-1780 # aabf790c <__data_paddr_start+0x8aaf6904>
   107a8:	40d35393          	srai	t2,t1,0xd
   107ac:	40835e13          	srai	t3,t1,0x8
   107b0:	40935e93          	srai	t4,t1,0x9
   107b4:	40e35f13          	srai	t5,t1,0xe
   107b8:	40435f93          	srai	t6,t1,0x4
   107bc:	01c383b3          	add	t2,t2,t3
   107c0:	01ee8eb3          	add	t4,t4,t5
   107c4:	01f282b3          	add	t0,t0,t6
   107c8:	01d383b3          	add	t2,t2,t4
   107cc:	007282b3          	add	t0,t0,t2
   107d0:	00542023          	sw	t0,0(s0)
   107d4:	00440413          	addi	s0,s0,4

000107d8 <jalr>:
   107d8:	fffff2b7          	lui	t0,0xfffff
   107dc:	00000317          	auipc	t1,0x0
   107e0:	02030313          	addi	t1,t1,32 # 107fc <jalr+0x24>
   107e4:	00030367          	jalr	t1,t1
   107e8:	0012e293          	ori	t0,t0,1
   107ec:	00430367          	jalr	t1,4(t1)
   107f0:	0042e293          	ori	t0,t0,4
   107f4:	00430367          	jalr	t1,4(t1)
   107f8:	0102e293          	ori	t0,t0,16
   107fc:	00430367          	jalr	t1,4(t1)
   10800:	0012e293          	ori	t0,t0,1
   10804:	00430367          	jalr	t1,4(t1)
   10808:	0082e293          	ori	t0,t0,8
   1080c:	00000317          	auipc	t1,0x0
   10810:	03030313          	addi	t1,t1,48 # 1083c <jalr+0x64>
   10814:	fe0303e7          	jalr	t2,-32(t1)
   10818:	0202e293          	ori	t0,t0,32
   1081c:	fe830e67          	jalr	t3,-24(t1)
   10820:	0402e293          	ori	t0,t0,64
   10824:	ff030ee7          	jalr	t4,-16(t1)
   10828:	0802e293          	ori	t0,t0,128
   1082c:	ff830f67          	jalr	t5,-8(t1)
   10830:	1002e293          	ori	t0,t0,256
   10834:	00030fe7          	jalr	t6,t1
   10838:	2002e293          	ori	t0,t0,512
   1083c:	41c383b3          	sub	t2,t2,t3
   10840:	41ee8eb3          	sub	t4,t4,t5
   10844:	406f8fb3          	sub	t6,t6,t1
   10848:	01d383b3          	add	t2,t2,t4
   1084c:	01f38333          	add	t1,t2,t6
   10850:	006292b3          	sll	t0,t0,t1
   10854:	00542023          	sw	t0,0(s0)
   10858:	00440413          	addi	s0,s0,4

0001085c <store>:
   1085c:	00f00293          	li	t0,15
   10860:	0f000313          	li	t1,240
   10864:	000013b7          	lui	t2,0x1
   10868:	f0038393          	addi	t2,t2,-256 # f00 <boot+0xd60>
   1086c:	0000fe37          	lui	t3,0xf
   10870:	12345eb7          	lui	t4,0x12345
   10874:	678e8e93          	addi	t4,t4,1656 # 12345678 <_end+0x12315678>
   10878:	01440413          	addi	s0,s0,20
   1087c:	fe542e23          	sw	t0,-4(s0)
   10880:	fe642c23          	sw	t1,-8(s0)
   10884:	fe742a23          	sw	t2,-12(s0)
   10888:	ffc42823          	sw	t3,-16(s0)
   1088c:	ffd42623          	sw	t4,-20(s0)
   10890:	01440413          	addi	s0,s0,20
   10894:	fd842f03          	lw	t5,-40(s0)
   10898:	ff042e83          	lw	t4,-16(s0)
   1089c:	ffe42e23          	sw	t5,-4(s0)
   108a0:	ffe40c23          	sb	t5,-8(s0)
   108a4:	ffe41a23          	sh	t5,-12(s0)
   108a8:	ffe409a3          	sb	t5,-13(s0)
   108ac:	ffe41723          	sh	t5,-18(s0)
   108b0:	ff042283          	lw	t0,-16(s0)
   108b4:	fec42303          	lw	t1,-20(s0)
   108b8:	005303b3          	add	t2,t1,t0
   108bc:	00440413          	addi	s0,s0,4
   108c0:	fe742e23          	sw	t2,-4(s0)

000108c4 <beq>:
   108c4:	fffff2b7          	lui	t0,0xfffff
   108c8:	fffff337          	lui	t1,0xfffff
   108cc:	00001337          	lui	t1,0x1
   108d0:	ff030313          	addi	t1,t1,-16 # ff0 <boot+0xe50>
   108d4:	02628c63          	beq	t0,t1,1090c <beq+0x48>
   108d8:	02628a63          	beq	t0,t1,1090c <beq+0x48>
   108dc:	02628863          	beq	t0,t1,1090c <beq+0x48>
   108e0:	02628663          	beq	t0,t1,1090c <beq+0x48>
   108e4:	02628463          	beq	t0,t1,1090c <beq+0x48>
   108e8:	fffff337          	lui	t1,0xfffff
   108ec:	00001337          	lui	t1,0x1
   108f0:	fff30313          	addi	t1,t1,-1 # fff <boot+0xe5f>
   108f4:	00530c63          	beq	t1,t0,1090c <beq+0x48>
   108f8:	00530a63          	beq	t1,t0,1090c <beq+0x48>
   108fc:	00530863          	beq	t1,t0,1090c <beq+0x48>
   10900:	00530663          	beq	t1,t0,1090c <beq+0x48>
   10904:	00530463          	beq	t1,t0,1090c <beq+0x48>
   10908:	0080006f          	j	10910 <beq+0x4c>
   1090c:	0012e293          	ori	t0,t0,1
   10910:	fff34313          	not	t1,t1
   10914:	00628463          	beq	t0,t1,1091c <beq+0x58>
   10918:	0022e293          	ori	t0,t0,2
   1091c:	00542023          	sw	t0,0(s0)
   10920:	00440413          	addi	s0,s0,4

00010924 <bne>:
   10924:	fffff2b7          	lui	t0,0xfffff
   10928:	00001337          	lui	t1,0x1
   1092c:	ff030313          	addi	t1,t1,-16 # ff0 <boot+0xe50>
   10930:	fffff337          	lui	t1,0xfffff
   10934:	02629c63          	bne	t0,t1,1096c <bne+0x48>
   10938:	02629a63          	bne	t0,t1,1096c <bne+0x48>
   1093c:	02629863          	bne	t0,t1,1096c <bne+0x48>
   10940:	02629663          	bne	t0,t1,1096c <bne+0x48>
   10944:	02629463          	bne	t0,t1,1096c <bne+0x48>
   10948:	00001337          	lui	t1,0x1
   1094c:	fff30313          	addi	t1,t1,-1 # fff <boot+0xe5f>
   10950:	fffff337          	lui	t1,0xfffff
   10954:	00531c63          	bne	t1,t0,1096c <bne+0x48>
   10958:	00531a63          	bne	t1,t0,1096c <bne+0x48>
   1095c:	00531863          	bne	t1,t0,1096c <bne+0x48>
   10960:	00531663          	bne	t1,t0,1096c <bne+0x48>
   10964:	00531463          	bne	t1,t0,1096c <bne+0x48>
   10968:	0080006f          	j	10970 <bne+0x4c>
   1096c:	0012e293          	ori	t0,t0,1
   10970:	fff34313          	not	t1,t1
   10974:	00629463          	bne	t0,t1,1097c <bne+0x58>
   10978:	0022e293          	ori	t0,t0,2
   1097c:	00542023          	sw	t0,0(s0)
   10980:	00440413          	addi	s0,s0,4

00010984 <blt>:
   10984:	fffff2b7          	lui	t0,0xfffff
   10988:	00001337          	lui	t1,0x1
   1098c:	ff030313          	addi	t1,t1,-16 # ff0 <boot+0xe50>
   10990:	ffc28313          	addi	t1,t0,-4 # ffffeffc <__data_paddr_start+0xdfefdff4>
   10994:	0262cc63          	blt	t0,t1,109cc <blt+0x48>
   10998:	0262ca63          	blt	t0,t1,109cc <blt+0x48>
   1099c:	0262c863          	blt	t0,t1,109cc <blt+0x48>
   109a0:	0262c663          	blt	t0,t1,109cc <blt+0x48>
   109a4:	0262c463          	blt	t0,t1,109cc <blt+0x48>
   109a8:	00001337          	lui	t1,0x1
   109ac:	fff30313          	addi	t1,t1,-1 # fff <boot+0xe5f>
   109b0:	00428313          	addi	t1,t0,4
   109b4:	00534c63          	blt	t1,t0,109cc <blt+0x48>
   109b8:	00534a63          	blt	t1,t0,109cc <blt+0x48>
   109bc:	00534863          	blt	t1,t0,109cc <blt+0x48>
   109c0:	00534663          	blt	t1,t0,109cc <blt+0x48>
   109c4:	00534463          	blt	t1,t0,109cc <blt+0x48>
   109c8:	0080006f          	j	109d0 <blt+0x4c>
   109cc:	0012e293          	ori	t0,t0,1
   109d0:	00001337          	lui	t1,0x1
   109d4:	fff30313          	addi	t1,t1,-1 # fff <boot+0xe5f>
   109d8:	0062c463          	blt	t0,t1,109e0 <blt+0x5c>
   109dc:	0022e293          	ori	t0,t0,2
   109e0:	00028313          	mv	t1,t0
   109e4:	0062c463          	blt	t0,t1,109ec <blt+0x68>
   109e8:	0080006f          	j	109f0 <blt+0x6c>
   109ec:	0042e293          	ori	t0,t0,4
   109f0:	fffff337          	lui	t1,0xfffff
   109f4:	eee30313          	addi	t1,t1,-274 # ffffeeee <__data_paddr_start+0xdfefdee6>
   109f8:	0062c463          	blt	t0,t1,10a00 <blt+0x7c>
   109fc:	0080006f          	j	10a04 <blt+0x80>
   10a00:	0082e293          	ori	t0,t0,8
   10a04:	00542023          	sw	t0,0(s0)
   10a08:	00440413          	addi	s0,s0,4

00010a0c <bge>:
   10a0c:	fffff2b7          	lui	t0,0xfffff
   10a10:	fffff337          	lui	t1,0xfffff
   10a14:	00428313          	addi	t1,t0,4 # fffff004 <__data_paddr_start+0xdfefdffc>
   10a18:	0262da63          	bge	t0,t1,10a4c <bge+0x40>
   10a1c:	0262d863          	bge	t0,t1,10a4c <bge+0x40>
   10a20:	0262d663          	bge	t0,t1,10a4c <bge+0x40>
   10a24:	0262d463          	bge	t0,t1,10a4c <bge+0x40>
   10a28:	0262d263          	bge	t0,t1,10a4c <bge+0x40>
   10a2c:	ffff0337          	lui	t1,0xffff0
   10a30:	ffc28313          	addi	t1,t0,-4
   10a34:	00535c63          	bge	t1,t0,10a4c <bge+0x40>
   10a38:	00535a63          	bge	t1,t0,10a4c <bge+0x40>
   10a3c:	00535863          	bge	t1,t0,10a4c <bge+0x40>
   10a40:	00535663          	bge	t1,t0,10a4c <bge+0x40>
   10a44:	00535463          	bge	t1,t0,10a4c <bge+0x40>
   10a48:	0080006f          	j	10a50 <bge+0x44>
   10a4c:	0012e293          	ori	t0,t0,1
   10a50:	00001337          	lui	t1,0x1
   10a54:	fff30313          	addi	t1,t1,-1 # fff <boot+0xe5f>
   10a58:	0062d463          	bge	t0,t1,10a60 <bge+0x54>
   10a5c:	0080006f          	j	10a64 <bge+0x58>
   10a60:	0022e293          	ori	t0,t0,2
   10a64:	00028313          	mv	t1,t0
   10a68:	0062d463          	bge	t0,t1,10a70 <bge+0x64>
   10a6c:	0042e293          	ori	t0,t0,4
   10a70:	fffff337          	lui	t1,0xfffff
   10a74:	eee30313          	addi	t1,t1,-274 # ffffeeee <__data_paddr_start+0xdfefdee6>
   10a78:	0062d463          	bge	t0,t1,10a80 <bge+0x74>
   10a7c:	0082e293          	ori	t0,t0,8
   10a80:	00542023          	sw	t0,0(s0)
   10a84:	00440413          	addi	s0,s0,4

00010a88 <bltu>:
   10a88:	fffff2b7          	lui	t0,0xfffff
   10a8c:	f0000313          	li	t1,-256
   10a90:	ffc28313          	addi	t1,t0,-4 # ffffeffc <__data_paddr_start+0xdfefdff4>
   10a94:	0262ea63          	bltu	t0,t1,10ac8 <bltu+0x40>
   10a98:	0262e863          	bltu	t0,t1,10ac8 <bltu+0x40>
   10a9c:	0262e663          	bltu	t0,t1,10ac8 <bltu+0x40>
   10aa0:	0262e463          	bltu	t0,t1,10ac8 <bltu+0x40>
   10aa4:	0262e263          	bltu	t0,t1,10ac8 <bltu+0x40>
   10aa8:	fff00313          	li	t1,-1
   10aac:	00428313          	addi	t1,t0,4
   10ab0:	00536c63          	bltu	t1,t0,10ac8 <bltu+0x40>
   10ab4:	00536a63          	bltu	t1,t0,10ac8 <bltu+0x40>
   10ab8:	00536863          	bltu	t1,t0,10ac8 <bltu+0x40>
   10abc:	00536663          	bltu	t1,t0,10ac8 <bltu+0x40>
   10ac0:	00536463          	bltu	t1,t0,10ac8 <bltu+0x40>
   10ac4:	0080006f          	j	10acc <bltu+0x44>
   10ac8:	0012e293          	ori	t0,t0,1
   10acc:	fff00313          	li	t1,-1
   10ad0:	0062e463          	bltu	t0,t1,10ad8 <bltu+0x50>
   10ad4:	0022e293          	ori	t0,t0,2
   10ad8:	00028313          	mv	t1,t0
   10adc:	0062e463          	bltu	t0,t1,10ae4 <bltu+0x5c>
   10ae0:	0080006f          	j	10ae8 <bltu+0x60>
   10ae4:	0042e293          	ori	t0,t0,4
   10ae8:	00001337          	lui	t1,0x1
   10aec:	fff30313          	addi	t1,t1,-1 # fff <boot+0xe5f>
   10af0:	0062e463          	bltu	t0,t1,10af8 <bltu+0x70>
   10af4:	0080006f          	j	10afc <bltu+0x74>
   10af8:	0082e293          	ori	t0,t0,8
   10afc:	00542023          	sw	t0,0(s0)
   10b00:	00440413          	addi	s0,s0,4

00010b04 <bgeu>:
   10b04:	fffff2b7          	lui	t0,0xfffff
   10b08:	fffff337          	lui	t1,0xfffff
   10b0c:	00428313          	addi	t1,t0,4 # fffff004 <__data_paddr_start+0xdfefdffc>
   10b10:	0262fc63          	bgeu	t0,t1,10b48 <bgeu+0x44>
   10b14:	0262fa63          	bgeu	t0,t1,10b48 <bgeu+0x44>
   10b18:	0262f863          	bgeu	t0,t1,10b48 <bgeu+0x44>
   10b1c:	0262f663          	bgeu	t0,t1,10b48 <bgeu+0x44>
   10b20:	0262f463          	bgeu	t0,t1,10b48 <bgeu+0x44>
   10b24:	00001337          	lui	t1,0x1
   10b28:	fff30313          	addi	t1,t1,-1 # fff <boot+0xe5f>
   10b2c:	ffc28313          	addi	t1,t0,-4
   10b30:	00537c63          	bgeu	t1,t0,10b48 <bgeu+0x44>
   10b34:	00537a63          	bgeu	t1,t0,10b48 <bgeu+0x44>
   10b38:	00537863          	bgeu	t1,t0,10b48 <bgeu+0x44>
   10b3c:	00537663          	bgeu	t1,t0,10b48 <bgeu+0x44>
   10b40:	00537463          	bgeu	t1,t0,10b48 <bgeu+0x44>
   10b44:	0080006f          	j	10b4c <bgeu+0x48>
   10b48:	0012e293          	ori	t0,t0,1
   10b4c:	fff00313          	li	t1,-1
   10b50:	0062f463          	bgeu	t0,t1,10b58 <bgeu+0x54>
   10b54:	0080006f          	j	10b5c <bgeu+0x58>
   10b58:	0022e293          	ori	t0,t0,2
   10b5c:	00028313          	mv	t1,t0
   10b60:	0062f463          	bgeu	t0,t1,10b68 <bgeu+0x64>
   10b64:	0042e293          	ori	t0,t0,4
   10b68:	00001337          	lui	t1,0x1
   10b6c:	fff30313          	addi	t1,t1,-1 # fff <boot+0xe5f>
   10b70:	0062f463          	bgeu	t0,t1,10b78 <bgeu+0x74>
   10b74:	0082e293          	ori	t0,t0,8
   10b78:	00542023          	sw	t0,0(s0)
   10b7c:	00440413          	addi	s0,s0,4

00010b80 <auipc>:
   10b80:	00000297          	auipc	t0,0x0
   10b84:	fffff317          	auipc	t1,0xfffff
   10b88:	13579397          	auipc	t2,0x13579
   10b8c:	00730333          	add	t1,t1,t2
   10b90:	006282b3          	add	t0,t0,t1
   10b94:	00542023          	sw	t0,0(s0)
   10b98:	00440413          	addi	s0,s0,4

00010b9c <lui>:
   10b9c:	000002b7          	lui	t0,0x0
   10ba0:	fffff337          	lui	t1,0xfffff
   10ba4:	135793b7          	lui	t2,0x13579
   10ba8:	00730333          	add	t1,t1,t2
   10bac:	006282b3          	add	t0,t0,t1
   10bb0:	00542023          	sw	t0,0(s0)
   10bb4:	00440413          	addi	s0,s0,4

00010bb8 <jal>:
   10bb8:	fffff2b7          	lui	t0,0xfffff
   10bbc:	0080036f          	jal	t1,10bc4 <jal+0xc>
   10bc0:	0012e293          	ori	t0,t0,1
   10bc4:	00000397          	auipc	t2,0x0
   10bc8:	00038393          	mv	t2,t2
   10bcc:	40638333          	sub	t1,t2,t1
   10bd0:	006282b3          	add	t0,t0,t1
   10bd4:	00542023          	sw	t0,0(s0)
   10bd8:	00440413          	addi	s0,s0,4

00010bdc <csrrw>:
   10bdc:	000f02b7          	lui	t0,0xf0
   10be0:	00828293          	addi	t0,t0,8 # f0008 <_end+0xc0008>
   10be4:	30029073          	csrw	mstatus,t0
   10be8:	300013f3          	csrrw	t2,mstatus,zero
   10bec:	30001e73          	csrrw	t3,mstatus,zero
   10bf0:	01c38333          	add	t1,t2,t3
   10bf4:	00642023          	sw	t1,0(s0)
   10bf8:	00440413          	addi	s0,s0,4
   10bfc:	000012b7          	lui	t0,0x1
   10c00:	a3228293          	addi	t0,t0,-1486 # a32 <boot+0x892>
   10c04:	30429073          	csrw	mie,t0
   10c08:	304013f3          	csrrw	t2,mie,zero
   10c0c:	30401e73          	csrrw	t3,mie,zero
   10c10:	01c38333          	add	t1,t2,t3
   10c14:	00642023          	sw	t1,0(s0)
   10c18:	00440413          	addi	s0,s0,4
   10c1c:	000e52b7          	lui	t0,0xe5
   10c20:	0f028293          	addi	t0,t0,240 # e50f0 <_end+0xb50f0>
   10c24:	30529073          	csrw	mtvec,t0
   10c28:	305013f3          	csrrw	t2,mtvec,zero
   10c2c:	30501e73          	csrrw	t3,mtvec,zero
   10c30:	01c38333          	add	t1,t2,t3
   10c34:	00642023          	sw	t1,0(s0)
   10c38:	00440413          	addi	s0,s0,4
   10c3c:	000e52b7          	lui	t0,0xe5
   10c40:	0f028293          	addi	t0,t0,240 # e50f0 <_end+0xb50f0>
   10c44:	34129073          	csrw	mepc,t0
   10c48:	341013f3          	csrrw	t2,mepc,zero
   10c4c:	34101e73          	csrrw	t3,mepc,zero
   10c50:	01c38333          	add	t1,t2,t3
   10c54:	00642023          	sw	t1,0(s0)
   10c58:	00440413          	addi	s0,s0,4
   10c5c:	000012b7          	lui	t0,0x1
   10c60:	fff28293          	addi	t0,t0,-1 # fff <boot+0xe5f>
   10c64:	34429073          	csrw	mip,t0
   10c68:	344013f3          	csrrw	t2,mip,zero
   10c6c:	34401e73          	csrrw	t3,mip,zero
   10c70:	01c38333          	add	t1,t2,t3
   10c74:	00642023          	sw	t1,0(s0)
   10c78:	00440413          	addi	s0,s0,4

00010c7c <csrrwi>:
   10c7c:	3004d073          	csrwi	mstatus,9
   10c80:	30001373          	csrrw	t1,mstatus,zero
   10c84:	00642023          	sw	t1,0(s0)
   10c88:	00440413          	addi	s0,s0,4
   10c8c:	30505073          	csrwi	mtvec,0
   10c90:	30501373          	csrrw	t1,mtvec,zero
   10c94:	00642023          	sw	t1,0(s0)
   10c98:	00440413          	addi	s0,s0,4
   10c9c:	34185073          	csrwi	mepc,16
   10ca0:	34101373          	csrrw	t1,mepc,zero
   10ca4:	00642023          	sw	t1,0(s0)
   10ca8:	00440413          	addi	s0,s0,4
   10cac:	3447d073          	csrwi	mip,15
   10cb0:	34401373          	csrrw	t1,mip,zero
   10cb4:	00642023          	sw	t1,0(s0)
   10cb8:	00440413          	addi	s0,s0,4

00010cbc <csrrs>:
   10cbc:	000f02b7          	lui	t0,0xf0
   10cc0:	00828293          	addi	t0,t0,8 # f0008 <_end+0xc0008>
   10cc4:	000f0337          	lui	t1,0xf0
   10cc8:	00830313          	addi	t1,t1,8 # f0008 <_end+0xc0008>
   10ccc:	30029073          	csrw	mstatus,t0
   10cd0:	300322f3          	csrrs	t0,mstatus,t1
   10cd4:	300013f3          	csrrw	t2,mstatus,zero
   10cd8:	00742023          	sw	t2,0(s0)
   10cdc:	00440413          	addi	s0,s0,4

00010ce0 <csrrsi>:
   10ce0:	000f02b7          	lui	t0,0xf0
   10ce4:	00828293          	addi	t0,t0,8 # f0008 <_end+0xc0008>
   10ce8:	30029073          	csrw	mstatus,t0
   10cec:	3004e2f3          	csrrsi	t0,mstatus,9
   10cf0:	300013f3          	csrrw	t2,mstatus,zero
   10cf4:	00742023          	sw	t2,0(s0)
   10cf8:	00440413          	addi	s0,s0,4

00010cfc <csrrc>:
   10cfc:	000f22b7          	lui	t0,0xf2
   10d00:	88828293          	addi	t0,t0,-1912 # f1888 <_end+0xc1888>
   10d04:	000f2337          	lui	t1,0xf2
   10d08:	88030313          	addi	t1,t1,-1920 # f1880 <_end+0xc1880>
   10d0c:	30029073          	csrw	mstatus,t0
   10d10:	300332f3          	csrrc	t0,mstatus,t1
   10d14:	300013f3          	csrrw	t2,mstatus,zero
   10d18:	00742023          	sw	t2,0(s0)
   10d1c:	00440413          	addi	s0,s0,4

00010d20 <csrrci>:
   10d20:	000f22b7          	lui	t0,0xf2
   10d24:	88828293          	addi	t0,t0,-1912 # f1888 <_end+0xc1888>
   10d28:	30029073          	csrw	mstatus,t0
   10d2c:	3004f2f3          	csrrci	t0,mstatus,9
   10d30:	300013f3          	csrrw	t2,mstatus,zero
   10d34:	00742023          	sw	t2,0(s0)
   10d38:	00440413          	addi	s0,s0,4

00010d3c <mul>:
   10d3c:	000012b7          	lui	t0,0x1
   10d40:	23428293          	addi	t0,t0,564 # 1234 <_STACK_SIZE+0x234>
   10d44:	00f00313          	li	t1,15
   10d48:	026282b3          	mul	t0,t0,t1
   10d4c:	026282b3          	mul	t0,t0,t1
   10d50:	0a000313          	li	t1,160
   10d54:	026282b3          	mul	t0,t0,t1
   10d58:	00e00313          	li	t1,14
   10d5c:	026282b3          	mul	t0,t0,t1
   10d60:	00542023          	sw	t0,0(s0)
   10d64:	00440413          	addi	s0,s0,4

00010d68 <mulh>:
   10d68:	123452b7          	lui	t0,0x12345
   10d6c:	67828293          	addi	t0,t0,1656 # 12345678 <_end+0x12315678>
   10d70:	f0f0f337          	lui	t1,0xf0f0f
   10d74:	0f030313          	addi	t1,t1,240 # f0f0f0f0 <__data_paddr_start+0xd0e0e0e8>
   10d78:	026292b3          	mulh	t0,t0,t1
   10d7c:	026292b3          	mulh	t0,t0,t1
   10d80:	ffff0337          	lui	t1,0xffff0
   10d84:	026292b3          	mulh	t0,t0,t1
   10d88:	026292b3          	mulh	t0,t0,t1
   10d8c:	00542023          	sw	t0,0(s0)
   10d90:	00440413          	addi	s0,s0,4

00010d94 <mulhu>:
   10d94:	123452b7          	lui	t0,0x12345
   10d98:	67828293          	addi	t0,t0,1656 # 12345678 <_end+0x12315678>
   10d9c:	f0f0f337          	lui	t1,0xf0f0f
   10da0:	0f030313          	addi	t1,t1,240 # f0f0f0f0 <__data_paddr_start+0xd0e0e0e8>
   10da4:	0262b2b3          	mulhu	t0,t0,t1
   10da8:	0262b2b3          	mulhu	t0,t0,t1
   10dac:	ffff0337          	lui	t1,0xffff0
   10db0:	0262b2b3          	mulhu	t0,t0,t1
   10db4:	0262b2b3          	mulhu	t0,t0,t1
   10db8:	00542023          	sw	t0,0(s0)
   10dbc:	00440413          	addi	s0,s0,4

00010dc0 <mulhsu>:
   10dc0:	f0f0f2b7          	lui	t0,0xf0f0f
   10dc4:	0f028293          	addi	t0,t0,240 # f0f0f0f0 <__data_paddr_start+0xd0e0e0e8>
   10dc8:	f0f0f337          	lui	t1,0xf0f0f
   10dcc:	0f030313          	addi	t1,t1,240 # f0f0f0f0 <__data_paddr_start+0xd0e0e0e8>
   10dd0:	0262a2b3          	mulhsu	t0,t0,t1
   10dd4:	0262a2b3          	mulhsu	t0,t0,t1
   10dd8:	ffff0337          	lui	t1,0xffff0
   10ddc:	0262a2b3          	mulhsu	t0,t0,t1
   10de0:	0262a2b3          	mulhsu	t0,t0,t1
   10de4:	00542023          	sw	t0,0(s0)
   10de8:	00440413          	addi	s0,s0,4

00010dec <andn>:
   10dec:	123452b7          	lui	t0,0x12345
   10df0:	67828293          	addi	t0,t0,1656 # 12345678 <_end+0x12315678>
   10df4:	f0f0f337          	lui	t1,0xf0f0f
   10df8:	0f030313          	addi	t1,t1,240 # f0f0f0f0 <__data_paddr_start+0xd0e0e0e8>
   10dfc:	4062f3b3          	andn	t2,t0,t1
   10e00:	00742023          	sw	t2,0(s0)
   10e04:	00440413          	addi	s0,s0,4

00010e08 <orn>:
   10e08:	123452b7          	lui	t0,0x12345
   10e0c:	67828293          	addi	t0,t0,1656 # 12345678 <_end+0x12315678>
   10e10:	f0f0f337          	lui	t1,0xf0f0f
   10e14:	0f030313          	addi	t1,t1,240 # f0f0f0f0 <__data_paddr_start+0xd0e0e0e8>
   10e18:	4062e3b3          	orn	t2,t0,t1
   10e1c:	00742023          	sw	t2,0(s0)
   10e20:	00440413          	addi	s0,s0,4

00010e24 <xnor>:
   10e24:	123452b7          	lui	t0,0x12345
   10e28:	67828293          	addi	t0,t0,1656 # 12345678 <_end+0x12315678>
   10e2c:	f0f0f337          	lui	t1,0xf0f0f
   10e30:	0f030313          	addi	t1,t1,240 # f0f0f0f0 <__data_paddr_start+0xd0e0e0e8>
   10e34:	4062c3b3          	xnor	t2,t0,t1
   10e38:	00742023          	sw	t2,0(s0)
   10e3c:	00440413          	addi	s0,s0,4

00010e40 <rol>:
   10e40:	123452b7          	lui	t0,0x12345
   10e44:	67828293          	addi	t0,t0,1656 # 12345678 <_end+0x12315678>
   10e48:	00400313          	li	t1,4
   10e4c:	606293b3          	rol	t2,t0,t1
   10e50:	00742023          	sw	t2,0(s0)
   10e54:	00440413          	addi	s0,s0,4

00010e58 <ror>:
   10e58:	123452b7          	lui	t0,0x12345
   10e5c:	67828293          	addi	t0,t0,1656 # 12345678 <_end+0x12315678>
   10e60:	00400313          	li	t1,4
   10e64:	6062d3b3          	ror	t2,t0,t1
   10e68:	00742023          	sw	t2,0(s0)
   10e6c:	00440413          	addi	s0,s0,4

00010e70 <bclr>:
   10e70:	fff00293          	li	t0,-1
   10e74:	00500313          	li	t1,5
   10e78:	486293b3          	bclr	t2,t0,t1
   10e7c:	00742023          	sw	t2,0(s0)
   10e80:	00440413          	addi	s0,s0,4

00010e84 <bset>:
   10e84:	00000293          	li	t0,0
   10e88:	00500313          	li	t1,5
   10e8c:	286293b3          	bset	t2,t0,t1
   10e90:	00742023          	sw	t2,0(s0)
   10e94:	00440413          	addi	s0,s0,4

00010e98 <binv>:
   10e98:	00f00293          	li	t0,15
   10e9c:	00300313          	li	t1,3
   10ea0:	686293b3          	binv	t2,t0,t1
   10ea4:	00742023          	sw	t2,0(s0)
   10ea8:	00440413          	addi	s0,s0,4

00010eac <main_exit>:
   10eac:	00012403          	lw	s0,0(sp)
   10eb0:	00410113          	addi	sp,sp,4
   10eb4:	00008067          	ret
